target datalayout = "e-m:e-p270:32:32-p271:32:32-p272:64:64-i64:64-i128:128-f80:128-n8:16:32:64-S128"
target triple = "x86_64-pc-linux-gnu"

%"class.absl::lts_20240722::Status" = type { i64 }
%"class.grpc_core::RefCountedPtr.3" = type { ptr }
%"class.grpc_core::RefCounted" = type { %"class.grpc_core::PolymorphicRefCount", %"class.grpc_core::RefCount" }
%"class.grpc_core::PolymorphicRefCount" = type { ptr }
%"class.grpc_core::RefCount" = type { %"struct.std::atomic.89" }
%"struct.std::atomic.89" = type { %"struct.std::__atomic_base.90" }
%"struct.std::__atomic_base.90" = type { i64 }
%class.anon.164 = type { %"class.grpc_core::RefCountedPtr.3", %"class.absl::lts_20240722::Status" }

; Function Attrs: alwaysinline mustprogress nounwind uwtable
define linkonce_odr noundef i64 @_ZNSt13__atomic_baseIlE9fetch_subElSt12memory_order(ptr noundef nonnull align 8 dereferenceable(8) %0, i64 noundef %1, i32 noundef %2) #13 comdat align 2 {
  %4 = alloca ptr, align 8
  %5 = alloca i64, align 8
  %6 = alloca i32, align 4
  %7 = alloca i64, align 8
  %8 = alloca i64, align 8
  store ptr %0, ptr %4, align 8, !tbaa !204
  store i64 %1, ptr %5, align 8, !tbaa !24
  store i32 %2, ptr %6, align 4, !tbaa !206
  %9 = load ptr, ptr %4, align 8
  %10 = getelementptr inbounds nuw %"struct.std::__atomic_base.90", ptr %9, i32 0, i32 0
  %11 = load i32, ptr %6, align 4, !tbaa !206
  %12 = load i64, ptr %5, align 8, !tbaa !24
  store i64 %12, ptr %7, align 8, !tbaa !24
  switch i32 %11, label %13 [
    i32 1, label %16
    i32 2, label %16
    i32 3, label %19
    i32 4, label %22
    i32 5, label %25
  ]

13:                                               ; preds = %3
  %14 = load i64, ptr %7, align 8
  %15 = atomicrmw sub ptr %10, i64 %14 monotonic, align 8
  store i64 %15, ptr %8, align 8
  br label %28

16:                                               ; preds = %3, %3
  %17 = load i64, ptr %7, align 8
  %18 = atomicrmw sub ptr %10, i64 %17 acquire, align 8
  store i64 %18, ptr %8, align 8
  br label %28

19:                                               ; preds = %3
  %20 = load i64, ptr %7, align 8
  %21 = atomicrmw sub ptr %10, i64 %20 release, align 8
  store i64 %21, ptr %8, align 8
  br label %28

22:                                               ; preds = %3
  %23 = load i64, ptr %7, align 8
  %24 = atomicrmw sub ptr %10, i64 %23 acq_rel, align 8
  store i64 %24, ptr %8, align 8
  br label %28

25:                                               ; preds = %3
  %26 = load i64, ptr %7, align 8
  %27 = atomicrmw sub ptr %10, i64 %26 seq_cst, align 8
  store i64 %27, ptr %8, align 8
  br label %28

28:                                               ; preds = %25, %22, %19, %16, %13
  %29 = load i64, ptr %8, align 8, !tbaa !24
  ret i64 %29
}

; Function Attrs: mustprogress nounwind uwtable
define linkonce_odr void @_ZNK9grpc_core11UnrefDeleteclIKNS_10HandshakerEEEvPT_(ptr noundef nonnull align 1 dereferenceable(1) %0, ptr noundef %1) #7 comdat align 2 {
  %3 = alloca ptr, align 8
  %4 = alloca ptr, align 8
  store ptr %0, ptr %3, align 8, !tbaa !201
  store ptr %1, ptr %4, align 8, !tbaa !203
  %5 = load ptr, ptr %4, align 8, !tbaa !203
  %6 = icmp eq ptr %5, null
  br i1 %6, label %11, label %7

7:                                                ; preds = %2
  %8 = load ptr, ptr %5, align 8, !tbaa !107
  %9 = getelementptr inbounds ptr, ptr %8, i64 1
  %10 = load ptr, ptr %9, align 8
  call void %10(ptr noundef nonnull align 8 dereferenceable(16) %5) #3
  br label %11

11:                                               ; preds = %7, %2
  ret void
}

; Function Attrs: mustprogress nounwind uwtable
define linkonce_odr noundef zeroext i1 @_ZN9grpc_core8RefCount5UnrefEv(ptr noundef nonnull align 8 dereferenceable(8) %0) #7 comdat align 2 {
  %2 = alloca ptr, align 8
  %3 = alloca i64, align 8
  store ptr %0, ptr %2, align 8, !tbaa !199
  %4 = load ptr, ptr %2, align 8
  call void @llvm.lifetime.start.p0(i64 8, ptr %3) #3
  %5 = getelementptr inbounds nuw %"class.grpc_core::RefCount", ptr %4, i32 0, i32 0
  %6 = call noundef i64 @_ZNSt13__atomic_baseIlE9fetch_subElSt12memory_order(ptr noundef nonnull align 8 dereferenceable(8) %5, i64 noundef 1, i32 noundef 4) #3
  store i64 %6, ptr %3, align 8, !tbaa !24
  %7 = load i64, ptr %3, align 8, !tbaa !24
  %8 = icmp eq i64 %7, 1
  call void @llvm.lifetime.end.p0(i64 8, ptr %3) #3
  ret i1 %8
}

; Function Attrs: inlinehint mustprogress nounwind uwtable
define linkonce_odr noundef ptr @_ZN4absl12lts_202407226Status12RepToPointerEm(i64 noundef %0) #8 comdat align 2 {
  %2 = alloca i64, align 8
  store i64 %0, ptr %2, align 8, !tbaa !24
  %3 = load i64, ptr %2, align 8, !tbaa !24
  %4 = inttoptr i64 %3 to ptr
  ret ptr %4
}

; Function Attrs: mustprogress nounwind uwtable
define linkonce_odr noundef zeroext i1 @_ZN4absl12lts_202407226Status9IsInlinedEm(i64 noundef %0) #7 comdat align 2 {
  %2 = alloca i64, align 8
  store i64 %0, ptr %2, align 8, !tbaa !24
  %3 = load i64, ptr %2, align 8, !tbaa !24
  %4 = and i64 %3, 1
  %5 = icmp ne i64 %4, 0
  ret i1 %5
}

; Function Attrs: mustprogress nounwind uwtable
define linkonce_odr noundef i64 @_ZN4absl12lts_202407226Status16CodeToInlinedRepENS0_10StatusCodeE(i32 noundef %0) #7 comdat align 2 {
  %2 = alloca i32, align 4
  store i32 %0, ptr %2, align 4, !tbaa !208
  %3 = load i32, ptr %2, align 4, !tbaa !208
  %4 = sext i32 %3 to i64
  %5 = shl i64 %4, 2
  %6 = add i64 %5, 1
  ret i64 %6
}

; Function Attrs: mustprogress uwtable
define linkonce_odr void @_ZNK9grpc_core10RefCountedINS_10HandshakerENS_19PolymorphicRefCountENS_11UnrefDeleteEE5UnrefEv(ptr noundef nonnull align 8 dereferenceable(16) %0) #4 comdat align 2 {
  %2 = alloca ptr, align 8
  store ptr %0, ptr %2, align 8, !tbaa !197
  %3 = load ptr, ptr %2, align 8
  %4 = getelementptr inbounds nuw %"class.grpc_core::RefCounted", ptr %3, i32 0, i32 1
  %5 = call noundef zeroext i1 @_ZN9grpc_core8RefCount5UnrefEv(ptr noundef nonnull align 8 dereferenceable(8) %4)
  %6 = zext i1 %5 to i64
  %7 = call i64 @llvm.expect.i64(i64 %6, i64 0)
  %8 = icmp ne i64 %7, 0
  br i1 %8, label %9, label %10

9:                                                ; preds = %1
  call void @_ZNK9grpc_core11UnrefDeleteclIKNS_10HandshakerEEEvPT_(ptr noundef nonnull align 1 dereferenceable(1) %3, ptr noundef %3)
  br label %10

10:                                               ; preds = %9, %1
  ret void
}

; Function Attrs: inlinehint mustprogress uwtable
define linkonce_odr void @_ZN4absl12lts_202407226Status5UnrefEm(i64 noundef %0) #6 comdat align 2 {
  %2 = alloca i64, align 8
  store i64 %0, ptr %2, align 8, !tbaa !24
  %3 = load i64, ptr %2, align 8, !tbaa !24
  %4 = call noundef zeroext i1 @_ZN4absl12lts_202407226Status9IsInlinedEm(i64 noundef %3)
  br i1 %4, label %8, label %5

5:                                                ; preds = %1
  %6 = load i64, ptr %2, align 8, !tbaa !24
  %7 = call noundef ptr @_ZN4absl12lts_202407226Status12RepToPointerEm(i64 noundef %6)
  call void @_ZNK4absl12lts_2024072215status_internal9StatusRep5UnrefEv(ptr noundef nonnull align 8 dereferenceable(48) %7)
  br label %8

8:                                                ; preds = %5, %1
  ret void
}

; Function Attrs: mustprogress nounwind uwtable
define linkonce_odr noundef i64 @_ZN4absl12lts_202407226Status12MovedFromRepEv() #7 comdat align 2 {
  %1 = call noundef i64 @_ZN4absl12lts_202407226Status16CodeToInlinedRepENS0_10StatusCodeE(i32 noundef 13)
  %2 = or i64 %1, 2
  ret i64 %2
}

; Function Attrs: mustprogress nounwind uwtable
define linkonce_odr void @_ZN4absl12lts_202407226StatusC2Em(ptr noundef nonnull align 8 dereferenceable(8) %0, i64 noundef %1) unnamed_addr #7 comdat align 2 {
  %3 = alloca ptr, align 8
  %4 = alloca i64, align 8
  store ptr %0, ptr %3, align 8, !tbaa !14
  store i64 %1, ptr %4, align 8, !tbaa !24
  %5 = load ptr, ptr %3, align 8
  %6 = getelementptr inbounds nuw %"class.absl::lts_20240722::Status", ptr %5, i32 0, i32 0
  %7 = load i64, ptr %4, align 8, !tbaa !24
  store i64 %7, ptr %6, align 8, !tbaa !20
  ret void
}

; Function Attrs: mustprogress nounwind uwtable
define internal void @_ZN9grpc_core13RefCountedPtrINS_12_GLOBAL__N_118SecurityHandshakerEED2Ev(ptr noundef nonnull align 8 dereferenceable(8) %0) unnamed_addr #7 align 2 personality ptr @__gxx_personality_v0 {
  %2 = alloca ptr, align 8
  store ptr %0, ptr %2, align 8, !tbaa !47
  %3 = load ptr, ptr %2, align 8
  %4 = getelementptr inbounds nuw %"class.grpc_core::RefCountedPtr.3", ptr %3, i32 0, i32 0
  %5 = load ptr, ptr %4, align 8, !tbaa !49
  %6 = icmp ne ptr %5, null
  br i1 %6, label %7, label %11

7:                                                ; preds = %1
  %8 = getelementptr inbounds nuw %"class.grpc_core::RefCountedPtr.3", ptr %3, i32 0, i32 0
  %9 = load ptr, ptr %8, align 8, !tbaa !49
  invoke void @_ZNK9grpc_core10RefCountedINS_10HandshakerENS_19PolymorphicRefCountENS_11UnrefDeleteEE5UnrefEv(ptr noundef nonnull align 8 dereferenceable(16) %9)
          to label %10 unwind label %12

10:                                               ; preds = %7
  br label %11

11:                                               ; preds = %10, %1
  ret void

12:                                               ; preds = %7
  %13 = landingpad { ptr, i32 }
          catch ptr null
  %14 = extractvalue { ptr, i32 } %13, 0
  call void @__clang_call_terminate(ptr %14) #27
  unreachable
}

; Function Attrs: inlinehint mustprogress nounwind uwtable
define linkonce_odr void @_ZN4absl12lts_202407226StatusD2Ev(ptr noundef nonnull align 8 dereferenceable(8) %0) unnamed_addr #8 comdat align 2 personality ptr @__gxx_personality_v0 {
  %2 = alloca ptr, align 8
  store ptr %0, ptr %2, align 8, !tbaa !14
  %3 = load ptr, ptr %2, align 8
  %4 = getelementptr inbounds nuw %"class.absl::lts_20240722::Status", ptr %3, i32 0, i32 0
  %5 = load i64, ptr %4, align 8, !tbaa !20
  invoke void @_ZN4absl12lts_202407226Status5UnrefEm(i64 noundef %5)
          to label %6 unwind label %7

6:                                                ; preds = %1
  ret void

7:                                                ; preds = %1
  %8 = landingpad { ptr, i32 }
          catch ptr null
  %9 = extractvalue { ptr, i32 } %8, 0
  call void @__clang_call_terminate(ptr %9) #27
  unreachable
}

; Function Attrs: inlinehint mustprogress nounwind uwtable
define linkonce_odr void @_ZN4absl12lts_202407226StatusC2EOS1_(ptr noundef nonnull align 8 dereferenceable(8) %0, ptr noundef nonnull align 8 dereferenceable(8) %1) unnamed_addr #8 comdat align 2 personality ptr @__gxx_personality_v0 {
  %3 = alloca ptr, align 8
  %4 = alloca ptr, align 8
  store ptr %0, ptr %3, align 8, !tbaa !14
  store ptr %1, ptr %4, align 8, !tbaa !14
  %5 = load ptr, ptr %3, align 8
  %6 = load ptr, ptr %4, align 8, !tbaa !14
  %7 = getelementptr inbounds nuw %"class.absl::lts_20240722::Status", ptr %6, i32 0, i32 0
  %8 = load i64, ptr %7, align 8, !tbaa !20
  invoke void @_ZN4absl12lts_202407226StatusC2Em(ptr noundef nonnull align 8 dereferenceable(8) %5, i64 noundef %8)
          to label %9 unwind label %14

9:                                                ; preds = %2
  %10 = invoke noundef i64 @_ZN4absl12lts_202407226Status12MovedFromRepEv()
          to label %11 unwind label %14

11:                                               ; preds = %9
  %12 = load ptr, ptr %4, align 8, !tbaa !14
  %13 = getelementptr inbounds nuw %"class.absl::lts_20240722::Status", ptr %12, i32 0, i32 0
  store i64 %10, ptr %13, align 8, !tbaa !20
  ret void

14:                                               ; preds = %9, %2
  %15 = landingpad { ptr, i32 }
          catch ptr null
  %16 = extractvalue { ptr, i32 } %15, 0
  call void @__clang_call_terminate(ptr %16) #27
  unreachable
}

; Function Attrs: mustprogress nounwind uwtable
define internal void @_ZN9grpc_core13RefCountedPtrINS_12_GLOBAL__N_118SecurityHandshakerEEC2EOS3_(ptr noundef nonnull align 8 dereferenceable(8) %0, ptr noundef nonnull align 8 dereferenceable(8) %1) unnamed_addr #7 align 2 {
  %3 = alloca ptr, align 8
  %4 = alloca ptr, align 8
  store ptr %0, ptr %3, align 8, !tbaa !47
  store ptr %1, ptr %4, align 8, !tbaa !47
  %5 = load ptr, ptr %3, align 8
  %6 = getelementptr inbounds nuw %"class.grpc_core::RefCountedPtr.3", ptr %5, i32 0, i32 0
  store ptr null, ptr %6, align 8, !tbaa !49
  %7 = load ptr, ptr %4, align 8, !tbaa !47
  %8 = getelementptr inbounds nuw %"class.grpc_core::RefCountedPtr.3", ptr %7, i32 0, i32 0
  %9 = load ptr, ptr %8, align 8, !tbaa !49
  %10 = getelementptr inbounds nuw %"class.grpc_core::RefCountedPtr.3", ptr %5, i32 0, i32 0
  store ptr %9, ptr %10, align 8, !tbaa !49
  %11 = load ptr, ptr %4, align 8, !tbaa !47
  %12 = getelementptr inbounds nuw %"class.grpc_core::RefCountedPtr.3", ptr %11, i32 0, i32 0
  store ptr null, ptr %12, align 8, !tbaa !49
  ret void
}

; Function Attrs: mustprogress nounwind uwtable
define internal noundef ptr @"_ZSt7launderIZN9grpc_core12_GLOBAL__N_118SecurityHandshaker36OnHandshakeDataSentToPeerFnSchedulerEN4absl12lts_202407226StatusEE3$_0EPT_S8_"(ptr noundef %0) #7 {
  %2 = alloca ptr, align 8
  store ptr %0, ptr %2, align 8, !tbaa !76
  %3 = load ptr, ptr %2, align 8, !tbaa !76
  ret ptr %3
}

; Function Attrs: inlinehint mustprogress nounwind uwtable
define internal void @"_ZZN9grpc_core12_GLOBAL__N_118SecurityHandshaker36OnHandshakeDataSentToPeerFnSchedulerEN4absl12lts_202407226StatusEEN3$_0D2Ev"(ptr noundef nonnull align 8 dereferenceable(16) %0) unnamed_addr #8 align 2 {
  %2 = alloca ptr, align 8
  store ptr %0, ptr %2, align 8, !tbaa !76
  %3 = load ptr, ptr %2, align 8
  %4 = getelementptr inbounds nuw %class.anon.164, ptr %3, i32 0, i32 1
  call void @_ZN4absl12lts_202407226StatusD2Ev(ptr noundef nonnull align 8 dereferenceable(8) %4) #3
  %5 = getelementptr inbounds nuw %class.anon.164, ptr %3, i32 0, i32 0
  call void @_ZN9grpc_core13RefCountedPtrINS_12_GLOBAL__N_118SecurityHandshakerEED2Ev(ptr noundef nonnull align 8 dereferenceable(8) %5) #3
  ret void
}

; Function Attrs: inlinehint mustprogress nounwind uwtable
define internal void @"_ZZN9grpc_core12_GLOBAL__N_118SecurityHandshaker36OnHandshakeDataSentToPeerFnSchedulerEN4absl12lts_202407226StatusEEN3$_0C2EOS5_"(ptr noundef nonnull align 8 dereferenceable(16) %0, ptr noundef nonnull align 8 dereferenceable(16) %1) unnamed_addr #8 align 2 {
  %3 = alloca ptr, align 8
  %4 = alloca ptr, align 8
  store ptr %0, ptr %3, align 8, !tbaa !76
  store ptr %1, ptr %4, align 8, !tbaa !76
  %5 = load ptr, ptr %3, align 8
  %6 = getelementptr inbounds nuw %class.anon.164, ptr %5, i32 0, i32 0
  %7 = load ptr, ptr %4, align 8, !tbaa !76
  %8 = getelementptr inbounds nuw %class.anon.164, ptr %7, i32 0, i32 0
  call void @_ZN9grpc_core13RefCountedPtrINS_12_GLOBAL__N_118SecurityHandshakerEEC2EOS3_(ptr noundef nonnull align 8 dereferenceable(8) %6, ptr noundef nonnull align 8 dereferenceable(8) %8) #3
  %9 = getelementptr inbounds nuw %class.anon.164, ptr %5, i32 0, i32 1
  %10 = load ptr, ptr %4, align 8, !tbaa !76
  %11 = getelementptr inbounds nuw %class.anon.164, ptr %10, i32 0, i32 1
  call void @_ZN4absl12lts_202407226StatusC2EOS1_(ptr noundef nonnull align 8 dereferenceable(8) %9, ptr noundef nonnull align 8 dereferenceable(8) %11) #3
  ret void
}

; Function Attrs: mustprogress nounwind uwtable
define internal noundef nonnull align 8 dereferenceable(16) ptr @"_ZN4absl12lts_2024072222internal_any_invocable20ObjectInLocalStorageIZN9grpc_core12_GLOBAL__N_118SecurityHandshaker36OnHandshakeDataSentToPeerFnSchedulerENS0_6StatusEE3$_0EERT_PNS1_15TypeErasedStateE"(ptr noundef %0) #7 {
  %2 = alloca ptr, align 8
  store ptr %0, ptr %2, align 8, !tbaa !229
  %3 = load ptr, ptr %2, align 8, !tbaa !229
  %4 = call noundef ptr @"_ZSt7launderIZN9grpc_core12_GLOBAL__N_118SecurityHandshaker36OnHandshakeDataSentToPeerFnSchedulerEN4absl12lts_202407226StatusEE3$_0EPT_S8_"(ptr noundef %3) #3
  ret ptr %4
}

; Function Attrs: mustprogress nounwind uwtable
define internal void @"_ZN4absl12lts_2024072222internal_any_invocable22LocalManagerNontrivialIZN9grpc_core12_GLOBAL__N_118SecurityHandshaker36OnHandshakeDataSentToPeerFnSchedulerENS0_6StatusEE3$_0EEvNS1_14FunctionToCallEPNS1_15TypeErasedStateESA_"(i1 noundef zeroext %0, ptr noundef %1, ptr noundef %2) #7 {
  %4 = alloca i8, align 1
  %5 = alloca ptr, align 8
  %6 = alloca ptr, align 8
  %7 = alloca ptr, align 8
  %8 = alloca i32, align 4
  %9 = zext i1 %0 to i8
  store i8 %9, ptr %4, align 1, !tbaa !227
  store ptr %1, ptr %5, align 8, !tbaa !229
  store ptr %2, ptr %6, align 8, !tbaa !229
  call void @llvm.lifetime.start.p0(i64 8, ptr %7) #3
  %10 = load ptr, ptr %5, align 8, !tbaa !229
  %11 = call noundef nonnull align 8 dereferenceable(16) ptr @"_ZN4absl12lts_2024072222internal_any_invocable20ObjectInLocalStorageIZN9grpc_core12_GLOBAL__N_118SecurityHandshaker36OnHandshakeDataSentToPeerFnSchedulerENS0_6StatusEE3$_0EERT_PNS1_15TypeErasedStateE"(ptr noundef %10)
  store ptr %11, ptr %7, align 8, !tbaa !76
  %12 = load i8, ptr %4, align 1, !tbaa !227, !range !281, !noundef !282
  %13 = trunc i8 %12 to i1
  switch i1 %13, label %19 [
    i1 false, label %14
    i1 true, label %17
  ]

14:                                               ; preds = %3
  %15 = load ptr, ptr %6, align 8, !tbaa !229
  %16 = load ptr, ptr %7, align 8, !tbaa !76
  call void @"_ZZN9grpc_core12_GLOBAL__N_118SecurityHandshaker36OnHandshakeDataSentToPeerFnSchedulerEN4absl12lts_202407226StatusEEN3$_0C2EOS5_"(ptr noundef nonnull align 8 dereferenceable(16) %15, ptr noundef nonnull align 8 dereferenceable(16) %16) #3
  br label %17

17:                                               ; preds = %3, %14
  %18 = load ptr, ptr %7, align 8, !tbaa !76
  call void @"_ZZN9grpc_core12_GLOBAL__N_118SecurityHandshaker36OnHandshakeDataSentToPeerFnSchedulerEN4absl12lts_202407226StatusEEN3$_0D2Ev"(ptr noundef nonnull align 8 dereferenceable(16) %18) #3
  store i32 1, ptr %8, align 4
  br label %23

19:                                               ; preds = %3
  br label %20

20:                                               ; preds = %19
  unreachable

21:                                               ; No predecessors!
  br label %22

22:                                               ; preds = %21
  store i32 0, ptr %8, align 4
  br label %23

23:                                               ; preds = %22, %17
  call void @llvm.lifetime.end.p0(i64 8, ptr %7) #3
  %24 = load i32, ptr %8, align 4
  switch i32 %24, label %26 [
    i32 0, label %25
    i32 1, label %25
  ]

25:                                               ; preds = %23, %23
  ret void

26:                                               ; preds = %23
  unreachable
}