; Function Attrs: mustprogress nounwind uwtable
define internal void @"_ZN4absl12lts_2024072222internal_any_invocable22LocalManagerNontrivialIZN9grpc_core12_GLOBAL__N_118SecurityHandshaker36OnHandshakeDataSentToPeerFnSchedulerENS0_6StatusEE3$_0EEvNS1_14FunctionToCallEPNS1_15TypeErasedStateESA_"(i1 noundef zeroext %0, ptr noundef captures(none) %1, ptr noundef writeonly captures(none) %2) #18 personality ptr @__gxx_personality_v0 {
  br i1 %0, label %8, label %.thread

.thread:                                          ; preds = %3
  store ptr null, ptr %2, align 8, !tbaa !177
  %4 = load ptr, ptr %1, align 8, !tbaa !177
  store ptr %4, ptr %2, align 8, !tbaa !177
  store ptr null, ptr %1, align 8, !tbaa !177
  %5 = getelementptr inbounds nuw i8, ptr %2, i64 8
  %6 = getelementptr inbounds nuw i8, ptr %1, i64 8
  %7 = load i64, ptr %6, align 8, !tbaa !3
  store i64 %7, ptr %5, align 8, !tbaa !3
  store i64 55, ptr %6, align 8, !tbaa !3
  br label %_ZN4absl12lts_202407226StatusD2Ev.exit.i

8:                                                ; preds = %3
  %.phi.trans.insert = getelementptr inbounds nuw i8, ptr %1, i64 8
  %.pre = load i64, ptr %.phi.trans.insert, align 8, !tbaa !3
  %9 = and i64 %.pre, 1
  %.not.i.i.i = icmp eq i64 %9, 0
  br i1 %.not.i.i.i, label %10, label %_ZN4absl12lts_202407226StatusD2Ev.exit.i

10:                                               ; preds = %8
  %11 = inttoptr i64 %.pre to ptr
  invoke void @_ZNK4absl12lts_2024072215status_internal9StatusRep5UnrefEv(ptr noundef nonnull align 8 dereferenceable(48) %11)
          to label %_ZN4absl12lts_202407226StatusD2Ev.exit.i unwind label %12

12:                                               ; preds = %10
  %13 = landingpad { ptr, i32 }
          catch ptr null
  %14 = extractvalue { ptr, i32 } %13, 0
  tail call void @__clang_call_terminate(ptr %14) #33
  unreachable

_ZN4absl12lts_202407226StatusD2Ev.exit.i:         ; preds = %.thread, %10, %8
  %.val.i = load ptr, ptr %1, align 8, !tbaa !177
  %.not.i.i = icmp eq ptr %.val.i, null
  br i1 %.not.i.i, label %"_ZZN9grpc_core12_GLOBAL__N_118SecurityHandshaker36OnHandshakeDataSentToPeerFnSchedulerEN4absl12lts_202407226StatusEEN3$_0D2Ev.exit", label %15

15:                                               ; preds = %_ZN4absl12lts_202407226StatusD2Ev.exit.i
  %16 = getelementptr inbounds nuw i8, ptr %.val.i, i64 8
  %17 = atomicrmw sub ptr %16, i64 1 acq_rel, align 8
  %18 = icmp eq i64 %17, 1
  br i1 %18, label %19, label %"_ZZN9grpc_core12_GLOBAL__N_118SecurityHandshaker36OnHandshakeDataSentToPeerFnSchedulerEN4absl12lts_202407226StatusEEN3$_0D2Ev.exit", !prof !81

19:                                               ; preds = %15
  %20 = load ptr, ptr %.val.i, align 8, !tbaa !34
  %21 = getelementptr inbounds nuw i8, ptr %20, i64 8
  %22 = load ptr, ptr %21, align 8
  tail call void %22(ptr noundef nonnull align 8 dereferenceable(16) %.val.i) #30
  br label %"_ZZN9grpc_core12_GLOBAL__N_118SecurityHandshaker36OnHandshakeDataSentToPeerFnSchedulerEN4absl12lts_202407226StatusEEN3$_0D2Ev.exit"

"_ZZN9grpc_core12_GLOBAL__N_118SecurityHandshaker36OnHandshakeDataSentToPeerFnSchedulerEN4absl12lts_202407226StatusEEN3$_0D2Ev.exit": ; preds = %_ZN4absl12lts_202407226StatusD2Ev.exit.i, %15, %19
  ret void
}